; Function Attrs: mustprogress nounwind willreturn uwtable
define dso_local void @free_hashfile(ptr noundef captures(none) %0) local_unnamed_addr #2 {
  %2 = getelementptr inbounds nuw i8, ptr %0, i64 2456
  %3 = load ptr, ptr %2, align 8, !tbaa !19
  tail call void @free(ptr noundef %3) #13
  %4 = getelementptr inbounds nuw i8, ptr %0, i64 2464
  %5 = load ptr, ptr %4, align 8, !tbaa !21
  tail call void @free(ptr noundef %5) #13
  tail call void @free(ptr noundef %0) #13
  ret void
}